target datalayout = "e-m:e-p270:32:32-p271:32:32-p272:64:64-i64:64-i128:128-f80:128-n8:16:32:64-S128"
target triple = "x86_64-pc-linux-gnu"

%"struct.vcpkg::StringView" = type { ptr, i64 }
%"struct.vcpkg::LineInfo" = type { i32, ptr }
%"struct.vcpkg::StringLiteral" = type { %"struct.vcpkg::ZStringView" }
%"struct.vcpkg::ZStringView" = type { %"struct.vcpkg::StringView" }

@.str.1 = private unnamed_addr constant [124 x i8] c"generated/home/dtcxzyw/WorkSpace/Projects/compilers/llvm-opt-benchmark/bench/vcpkg/vcpkg-tool/src/vcpkg/statusparagraph.cpp\00", align 1
@_ZN5vcpkg18StatusNotInstalledE = linkonce_odr dso_local constant { ptr, i64 } { ptr @.str.11, i64 13 }, comdat, align 8
@_ZN5vcpkg15StatusInstalledE = linkonce_odr dso_local constant { ptr, i64 } { ptr @.str.13, i64 9 }, comdat, align 8
@_ZN5vcpkg19StatusHalfInstalledE = linkonce_odr dso_local constant { ptr, i64 } { ptr @.str.15, i64 14 }, comdat, align 8

; Function Attrs: mustprogress uwtable
define dso_local { ptr, i64 } @_ZN5vcpkg17to_string_literalENS_12InstallStateE(i32 noundef %0) #0 {
  %2 = alloca %"struct.vcpkg::StringLiteral", align 8
  %3 = alloca i32, align 4
  %4 = alloca %"struct.vcpkg::LineInfo", align 8
  store i32 %0, ptr %3, align 4, !tbaa !86
  %5 = load i32, ptr %3, align 4, !tbaa !86
  switch i32 %5, label %9 [
    i32 2, label %6
    i32 3, label %7
    i32 1, label %8
  ]

6:                                                ; preds = %1
  call void @llvm.memcpy.p0.p0.i64(ptr align 8 %2, ptr align 8 @_ZN5vcpkg19StatusHalfInstalledE, i64 16, i1 false)
  br label %12

7:                                                ; preds = %1
  call void @llvm.memcpy.p0.p0.i64(ptr align 8 %2, ptr align 8 @_ZN5vcpkg15StatusInstalledE, i64 16, i1 false)
  br label %12

8:                                                ; preds = %1
  call void @llvm.memcpy.p0.p0.i64(ptr align 8 %2, ptr align 8 @_ZN5vcpkg18StatusNotInstalledE, i64 16, i1 false)
  br label %12

9:                                                ; preds = %1
  call void @llvm.lifetime.start.p0(i64 16, ptr %4) #20
  %10 = getelementptr inbounds nuw %"struct.vcpkg::LineInfo", ptr %4, i32 0, i32 0
  store i32 101, ptr %10, align 8, !tbaa !31
  %11 = getelementptr inbounds nuw %"struct.vcpkg::LineInfo", ptr %4, i32 0, i32 1
  store ptr @.str.1, ptr %11, align 8, !tbaa !33
  call void @_ZN5vcpkg6Checks11unreachableERKNS_8LineInfoE(ptr noundef nonnull align 8 dereferenceable(16) %4) #22
  unreachable

12:                                               ; preds = %8, %7, %6
  %13 = getelementptr inbounds nuw %"struct.vcpkg::StringLiteral", ptr %2, i32 0, i32 0
  %14 = getelementptr inbounds nuw %"struct.vcpkg::ZStringView", ptr %13, i32 0, i32 0
  %15 = load { ptr, i64 }, ptr %14, align 8
  ret { ptr, i64 } %15
}