; Function Attrs: mustprogress uwtable
define dso_local { ptr, i64 } @_ZN5vcpkg17to_string_literalENS_12InstallStateE(i32 noundef %0) local_unnamed_addr #0 {
  %2 = alloca %"struct.vcpkg::LineInfo", align 8
  %switch.tableidx = add i32 %0, -1
  %3 = icmp ult i32 %switch.tableidx, 3
  br i1 %3, label %switch.lookup, label %4

4:                                                ; preds = %1
  call void @llvm.lifetime.start.p0(i64 16, ptr nonnull %2) #23
  store i32 101, ptr %2, align 8, !tbaa !74
  %5 = getelementptr inbounds nuw i8, ptr %2, i64 8
  store ptr @.str.1, ptr %5, align 8, !tbaa !76
  call void @_ZN5vcpkg6Checks11unreachableERKNS_8LineInfoE(ptr noundef nonnull align 8 dereferenceable(16) %2) #26
  unreachable

switch.lookup:                                    ; preds = %1
  %6 = zext nneg i32 %switch.tableidx to i64
  %switch.gep = getelementptr inbounds nuw [3 x ptr], ptr @switch.table._ZN3fmt3v116detail5valueINS0_7contextEE17format_custom_argIN5vcpkg12InstallStateENS0_9formatterIS7_cvEEEEvPvRNS0_26basic_format_parse_contextIcEERS3_, i64 0, i64 %6
  %switch.load = load ptr, ptr %switch.gep, align 8
  %7 = zext nneg i32 %switch.tableidx to i64
  %switch.gep5 = getelementptr inbounds nuw [3 x i64], ptr @switch.table._ZN3fmt3v116detail5valueINS0_7contextEE17format_custom_argIN5vcpkg12InstallStateENS0_9formatterIS7_cvEEEEvPvRNS0_26basic_format_parse_contextIcEERS3_.6, i64 0, i64 %7
  %switch.load6 = load i64, ptr %switch.gep5, align 8
  %.fca.0.insert = insertvalue { ptr, i64 } poison, ptr %switch.load, 0
  %.fca.1.insert = insertvalue { ptr, i64 } %.fca.0.insert, i64 %switch.load6, 1
  ret { ptr, i64 } %.fca.1.insert
}